; ModuleID = 'bench/openjdk/original/jmemnobs.ll'
source_filename = "bench/openjdk/original/jmemnobs.ll"
target datalayout = "e-m:e-p270:32:32-p271:32:32-p272:64:64-i64:64-i128:128-f80:128-n8:16:32:64-S128"
target triple = "x86_64-pc-linux-gnu"

; Function Attrs: mustprogress nofree nounwind willreturn memory(inaccessiblemem: readwrite) uwtable
define hidden noalias noundef ptr @jGetSmall(ptr nocapture noundef readnone %0, i64 noundef %1) local_unnamed_addr #0 {
  %3 = tail call noalias ptr @malloc(i64 noundef %1) #7
  ret ptr %3
}

; Function Attrs: mustprogress nofree nounwind willreturn allockind("alloc,uninitialized") allocsize(0) memory(inaccessiblemem: readwrite)
declare noalias noundef ptr @malloc(i64 noundef) local_unnamed_addr #1

; Function Attrs: mustprogress nounwind willreturn memory(argmem: readwrite, inaccessiblemem: readwrite) uwtable
define hidden void @jFreeSmall(ptr nocapture noundef readnone %0, ptr nocapture noundef %1, i64 noundef %2) local_unnamed_addr #2 {
  tail call void @free(ptr noundef %1) #8
  ret void
}

; Function Attrs: mustprogress nounwind willreturn allockind("free") memory(argmem: readwrite, inaccessiblemem: readwrite)
declare void @free(ptr allocptr nocapture noundef) local_unnamed_addr #3

; Function Attrs: mustprogress nofree nounwind willreturn memory(inaccessiblemem: readwrite) uwtable
define hidden noalias noundef ptr @jGetLarge(ptr nocapture noundef readnone %0, i64 noundef %1) local_unnamed_addr #0 {
  %3 = tail call noalias ptr @malloc(i64 noundef %1) #7
  ret ptr %3
}

; Function Attrs: mustprogress nounwind willreturn memory(argmem: readwrite, inaccessiblemem: readwrite) uwtable
define hidden void @jFreeLarge(ptr nocapture noundef readnone %0, ptr nocapture noundef %1, i64 noundef %2) local_unnamed_addr #2 {
  tail call void @free(ptr noundef %1) #8
  ret void
}

; Function Attrs: mustprogress nofree norecurse nosync nounwind willreturn memory(read, inaccessiblemem: none) uwtable
define hidden i64 @jMemAvail(ptr nocapture noundef readonly %0, i64 noundef %1, i64 noundef %2, i64 noundef %3) local_unnamed_addr #4 {
  %5 = getelementptr inbounds i8, ptr %0, i64 8
  %6 = load ptr, ptr %5, align 8
  %7 = getelementptr inbounds i8, ptr %6, i64 88
  %8 = load i64, ptr %7, align 8
  %.not = icmp eq i64 %8, 0
  %9 = sub i64 %8, %3
  %.0 = select i1 %.not, i64 %2, i64 %9
  ret i64 %.0
}

; Function Attrs: nounwind uwtable
define hidden void @jOpenBackStore(ptr noundef %0, ptr nocapture noundef readnone %1, i64 noundef %2) local_unnamed_addr #5 {
  %4 = load ptr, ptr %0, align 8
  %5 = getelementptr inbounds i8, ptr %4, i64 40
  store i32 49, ptr %5, align 8
  %6 = load ptr, ptr %0, align 8
  %7 = load ptr, ptr %6, align 8
  tail call void %7(ptr noundef nonnull %0) #8
  ret void
}

; Function Attrs: mustprogress nofree norecurse nosync nounwind willreturn memory(none) uwtable
define hidden noundef i64 @jMemInit(ptr nocapture noundef readnone %0) local_unnamed_addr #6 {
  ret i64 0
}

; Function Attrs: mustprogress nofree norecurse nosync nounwind willreturn memory(none) uwtable
define hidden void @jMemTerm(ptr nocapture noundef readnone %0) local_unnamed_addr #6 {
  ret void
}


!llvm.module.flags = !{!0, !1, !2, !3, !4, !5}

!0 = !{i32 7, !"Dwarf Version", i32 5}
!1 = !{i32 2, !"Debug Info Version", i32 3}
!2 = !{i32 1, !"wchar_size", i32 4}
!3 = !{i32 8, !"PIC Level", i32 2}
!4 = !{i32 7, !"uwtable", i32 2}
!5 = !{i32 7, !"frame-pointer", i32 2}
